target datalayout = "e-m:e-p270:32:32-p271:32:32-p272:64:64-i64:64-i128:128-f80:128-n8:16:32:64-S128"
target triple = "x86_64-pc-linux-gnu"

@.str.9 = private unnamed_addr constant [4 x i8] c"%d \00", align 1
@.str.10 = private unnamed_addr constant [3 x i8] c"  \00", align 1

; Function Attrs: nounwind uwtable
define void @Mpm_ManPrintPerm(i32 noundef %0) #0 {
  %2 = alloca i32, align 4
  %3 = alloca i32, align 4
  store i32 %0, ptr %2, align 4, !tbaa !3
  call void @llvm.lifetime.start.p0(i64 4, ptr %3) #12
  store i32 0, ptr %3, align 4, !tbaa !3
  br label %4

4:                                                ; preds = %14, %1
  %5 = load i32, ptr %3, align 4, !tbaa !3
  %6 = icmp slt i32 %5, 6
  br i1 %6, label %7, label %17

7:                                                ; preds = %4
  %8 = load i32, ptr %2, align 4, !tbaa !3
  %9 = load i32, ptr %3, align 4, !tbaa !3
  %10 = mul nsw i32 3, %9
  %11 = lshr i32 %8, %10
  %12 = and i32 %11, 7
  %13 = call i32 (ptr, ...) @printf(ptr noundef @.str.9, i32 noundef %12)
  br label %14

14:                                               ; preds = %7
  %15 = load i32, ptr %3, align 4, !tbaa !3
  %16 = add nsw i32 %15, 1
  store i32 %16, ptr %3, align 4, !tbaa !3
  br label %4, !llvm.loop !59

17:                                               ; preds = %4
  %18 = call i32 (ptr, ...) @printf(ptr noundef @.str.10)
  call void @llvm.lifetime.end.p0(i64 4, ptr %3) #12
  ret void
}