; Function Attrs: nofree nounwind uwtable
define void @Mpm_ManPrintPerm(i32 noundef %0) local_unnamed_addr #2 {
  br label %2

2:                                                ; preds = %1, %2
  %.04 = phi i32 [ 0, %1 ], [ %7, %2 ]
  %3 = mul nuw nsw i32 %.04, 3
  %4 = lshr i32 %0, %3
  %5 = and i32 %4, 7
  %6 = tail call i32 (ptr, ...) @printf(ptr noundef nonnull dereferenceable(1) @.str.9, i32 noundef %5)
  %7 = add nuw nsw i32 %.04, 1
  %exitcond.not = icmp eq i32 %7, 6
  br i1 %exitcond.not, label %8, label %2, !llvm.loop !64

8:                                                ; preds = %2
  %9 = tail call i32 (ptr, ...) @printf(ptr noundef nonnull dereferenceable(1) @.str.10)
  ret void
}